   1                     ; C Compiler for STM8 (COSMIC Software)
   2                     ; Generator V4.2.4 - 19 Dec 2007
3213                     .const:	section	.text
3214  0000               _F6x8:
3215  0000 00            	dc.b	0
3216  0001 00            	dc.b	0
3217  0002 00            	dc.b	0
3218  0003 00            	dc.b	0
3219  0004 00            	dc.b	0
3220  0005 00            	dc.b	0
3221  0006 00            	dc.b	0
3222  0007 00            	dc.b	0
3223  0008 00            	dc.b	0
3224  0009 2f            	dc.b	47
3225  000a 00            	dc.b	0
3226  000b 00            	dc.b	0
3227  000c 00            	dc.b	0
3228  000d 00            	dc.b	0
3229  000e 07            	dc.b	7
3230  000f 00            	dc.b	0
3231  0010 07            	dc.b	7
3232  0011 00            	dc.b	0
3233  0012 00            	dc.b	0
3234  0013 14            	dc.b	20
3235  0014 7f            	dc.b	127
3236  0015 14            	dc.b	20
3237  0016 7f            	dc.b	127
3238  0017 14            	dc.b	20
3239  0018 00            	dc.b	0
3240  0019 24            	dc.b	36
3241  001a 2a            	dc.b	42
3242  001b 7f            	dc.b	127
3243  001c 2a            	dc.b	42
3244  001d 12            	dc.b	18
3245  001e 00            	dc.b	0
3246  001f 62            	dc.b	98
3247  0020 64            	dc.b	100
3248  0021 08            	dc.b	8
3249  0022 13            	dc.b	19
3250  0023 23            	dc.b	35
3251  0024 00            	dc.b	0
3252  0025 36            	dc.b	54
3253  0026 49            	dc.b	73
3254  0027 55            	dc.b	85
3255  0028 22            	dc.b	34
3256  0029 50            	dc.b	80
3257  002a 00            	dc.b	0
3258  002b 00            	dc.b	0
3259  002c 05            	dc.b	5
3260  002d 03            	dc.b	3
3261  002e 00            	dc.b	0
3262  002f 00            	dc.b	0
3263  0030 00            	dc.b	0
3264  0031 00            	dc.b	0
3265  0032 1c            	dc.b	28
3266  0033 22            	dc.b	34
3267  0034 41            	dc.b	65
3268  0035 00            	dc.b	0
3269  0036 00            	dc.b	0
3270  0037 00            	dc.b	0
3271  0038 41            	dc.b	65
3272  0039 22            	dc.b	34
3273  003a 1c            	dc.b	28
3274  003b 00            	dc.b	0
3275  003c 00            	dc.b	0
3276  003d 14            	dc.b	20
3277  003e 08            	dc.b	8
3278  003f 3e            	dc.b	62
3279  0040 08            	dc.b	8
3280  0041 14            	dc.b	20
3281  0042 00            	dc.b	0
3282  0043 08            	dc.b	8
3283  0044 08            	dc.b	8
3284  0045 3e            	dc.b	62
3285  0046 08            	dc.b	8
3286  0047 08            	dc.b	8
3287  0048 00            	dc.b	0
3288  0049 00            	dc.b	0
3289  004a 00            	dc.b	0
3290  004b a0            	dc.b	160
3291  004c 60            	dc.b	96
3292  004d 00            	dc.b	0
3293  004e 00            	dc.b	0
3294  004f 08            	dc.b	8
3295  0050 08            	dc.b	8
3296  0051 08            	dc.b	8
3297  0052 08            	dc.b	8
3298  0053 08            	dc.b	8
3299  0054 00            	dc.b	0
3300  0055 00            	dc.b	0
3301  0056 60            	dc.b	96
3302  0057 60            	dc.b	96
3303  0058 00            	dc.b	0
3304  0059 00            	dc.b	0
3305  005a 00            	dc.b	0
3306  005b 20            	dc.b	32
3307  005c 10            	dc.b	16
3308  005d 08            	dc.b	8
3309  005e 04            	dc.b	4
3310  005f 02            	dc.b	2
3311  0060 00            	dc.b	0
3312  0061 3e            	dc.b	62
3313  0062 51            	dc.b	81
3314  0063 49            	dc.b	73
3315  0064 45            	dc.b	69
3316  0065 3e            	dc.b	62
3317  0066 00            	dc.b	0
3318  0067 00            	dc.b	0
3319  0068 42            	dc.b	66
3320  0069 7f            	dc.b	127
3321  006a 40            	dc.b	64
3322  006b 00            	dc.b	0
3323  006c 00            	dc.b	0
3324  006d 42            	dc.b	66
3325  006e 61            	dc.b	97
3326  006f 51            	dc.b	81
3327  0070 49            	dc.b	73
3328  0071 46            	dc.b	70
3329  0072 00            	dc.b	0
3330  0073 21            	dc.b	33
3331  0074 41            	dc.b	65
3332  0075 45            	dc.b	69
3333  0076 4b            	dc.b	75
3334  0077 31            	dc.b	49
3335  0078 00            	dc.b	0
3336  0079 18            	dc.b	24
3337  007a 14            	dc.b	20
3338  007b 12            	dc.b	18
3339  007c 7f            	dc.b	127
3340  007d 10            	dc.b	16
3341  007e 00            	dc.b	0
3342  007f 27            	dc.b	39
3343  0080 45            	dc.b	69
3344  0081 45            	dc.b	69
3345  0082 45            	dc.b	69
3346  0083 39            	dc.b	57
3347  0084 00            	dc.b	0
3348  0085 3c            	dc.b	60
3349  0086 4a            	dc.b	74
3350  0087 49            	dc.b	73
3351  0088 49            	dc.b	73
3352  0089 30            	dc.b	48
3353  008a 00            	dc.b	0
3354  008b 01            	dc.b	1
3355  008c 71            	dc.b	113
3356  008d 09            	dc.b	9
3357  008e 05            	dc.b	5
3358  008f 03            	dc.b	3
3359  0090 00            	dc.b	0
3360  0091 36            	dc.b	54
3361  0092 49            	dc.b	73
3362  0093 49            	dc.b	73
3363  0094 49            	dc.b	73
3364  0095 36            	dc.b	54
3365  0096 00            	dc.b	0
3366  0097 06            	dc.b	6
3367  0098 49            	dc.b	73
3368  0099 49            	dc.b	73
3369  009a 29            	dc.b	41
3370  009b 1e            	dc.b	30
3371  009c 00            	dc.b	0
3372  009d 00            	dc.b	0
3373  009e 36            	dc.b	54
3374  009f 36            	dc.b	54
3375  00a0 00            	dc.b	0
3376  00a1 00            	dc.b	0
3377  00a2 00            	dc.b	0
3378  00a3 00            	dc.b	0
3379  00a4 56            	dc.b	86
3380  00a5 36            	dc.b	54
3381  00a6 00            	dc.b	0
3382  00a7 00            	dc.b	0
3383  00a8 00            	dc.b	0
3384  00a9 08            	dc.b	8
3385  00aa 14            	dc.b	20
3386  00ab 22            	dc.b	34
3387  00ac 41            	dc.b	65
3388  00ad 00            	dc.b	0
3389  00ae 00            	dc.b	0
3390  00af 14            	dc.b	20
3391  00b0 14            	dc.b	20
3392  00b1 14            	dc.b	20
3393  00b2 14            	dc.b	20
3394  00b3 14            	dc.b	20
3395  00b4 00            	dc.b	0
3396  00b5 00            	dc.b	0
3397  00b6 41            	dc.b	65
3398  00b7 22            	dc.b	34
3399  00b8 14            	dc.b	20
3400  00b9 08            	dc.b	8
3401  00ba 00            	dc.b	0
3402  00bb 02            	dc.b	2
3403  00bc 01            	dc.b	1
3404  00bd 51            	dc.b	81
3405  00be 09            	dc.b	9
3406  00bf 06            	dc.b	6
3407  00c0 00            	dc.b	0
3408  00c1 32            	dc.b	50
3409  00c2 49            	dc.b	73
3410  00c3 59            	dc.b	89
3411  00c4 51            	dc.b	81
3412  00c5 3e            	dc.b	62
3413  00c6 00            	dc.b	0
3414  00c7 7c            	dc.b	124
3415  00c8 12            	dc.b	18
3416  00c9 11            	dc.b	17
3417  00ca 12            	dc.b	18
3418  00cb 7c            	dc.b	124
3419  00cc 00            	dc.b	0
3420  00cd 7f            	dc.b	127
3421  00ce 49            	dc.b	73
3422  00cf 49            	dc.b	73
3423  00d0 49            	dc.b	73
3424  00d1 36            	dc.b	54
3425  00d2 00            	dc.b	0
3426  00d3 3e            	dc.b	62
3427  00d4 41            	dc.b	65
3428  00d5 41            	dc.b	65
3429  00d6 41            	dc.b	65
3430  00d7 22            	dc.b	34
3431  00d8 00            	dc.b	0
3432  00d9 7f            	dc.b	127
3433  00da 41            	dc.b	65
3434  00db 41            	dc.b	65
3435  00dc 22            	dc.b	34
3436  00dd 1c            	dc.b	28
3437  00de 00            	dc.b	0
3438  00df 7f            	dc.b	127
3439  00e0 49            	dc.b	73
3440  00e1 49            	dc.b	73
3441  00e2 49            	dc.b	73
3442  00e3 41            	dc.b	65
3443  00e4 00            	dc.b	0
3444  00e5 7f            	dc.b	127
3445  00e6 09            	dc.b	9
3446  00e7 09            	dc.b	9
3447  00e8 09            	dc.b	9
3448  00e9 01            	dc.b	1
3449  00ea 00            	dc.b	0
3450  00eb 3e            	dc.b	62
3451  00ec 41            	dc.b	65
3452  00ed 49            	dc.b	73
3453  00ee 49            	dc.b	73
3454  00ef 7a            	dc.b	122
3455  00f0 00            	dc.b	0
3456  00f1 7f            	dc.b	127
3457  00f2 08            	dc.b	8
3458  00f3 08            	dc.b	8
3459  00f4 08            	dc.b	8
3460  00f5 7f            	dc.b	127
3461  00f6 00            	dc.b	0
3462  00f7 00            	dc.b	0
3463  00f8 41            	dc.b	65
3464  00f9 7f            	dc.b	127
3465  00fa 41            	dc.b	65
3466  00fb 00            	dc.b	0
3467  00fc 00            	dc.b	0
3468  00fd 20            	dc.b	32
3469  00fe 40            	dc.b	64
3470  00ff 41            	dc.b	65
3471  0100 3f            	dc.b	63
3472  0101 01            	dc.b	1
3473  0102 00            	dc.b	0
3474  0103 7f            	dc.b	127
3475  0104 08            	dc.b	8
3476  0105 14            	dc.b	20
3477  0106 22            	dc.b	34
3478  0107 41            	dc.b	65
3479  0108 00            	dc.b	0
3480  0109 7f            	dc.b	127
3481  010a 40            	dc.b	64
3482  010b 40            	dc.b	64
3483  010c 40            	dc.b	64
3484  010d 40            	dc.b	64
3485  010e 00            	dc.b	0
3486  010f 7f            	dc.b	127
3487  0110 02            	dc.b	2
3488  0111 0c            	dc.b	12
3489  0112 02            	dc.b	2
3490  0113 7f            	dc.b	127
3491  0114 00            	dc.b	0
3492  0115 7f            	dc.b	127
3493  0116 04            	dc.b	4
3494  0117 08            	dc.b	8
3495  0118 10            	dc.b	16
3496  0119 7f            	dc.b	127
3497  011a 00            	dc.b	0
3498  011b 3e            	dc.b	62
3499  011c 41            	dc.b	65
3500  011d 41            	dc.b	65
3501  011e 41            	dc.b	65
3502  011f 3e            	dc.b	62
3503  0120 00            	dc.b	0
3504  0121 7f            	dc.b	127
3505  0122 09            	dc.b	9
3506  0123 09            	dc.b	9
3507  0124 09            	dc.b	9
3508  0125 06            	dc.b	6
3509  0126 00            	dc.b	0
3510  0127 3e            	dc.b	62
3511  0128 41            	dc.b	65
3512  0129 51            	dc.b	81
3513  012a 21            	dc.b	33
3514  012b 5e            	dc.b	94
3515  012c 00            	dc.b	0
3516  012d 7f            	dc.b	127
3517  012e 09            	dc.b	9
3518  012f 19            	dc.b	25
3519  0130 29            	dc.b	41
3520  0131 46            	dc.b	70
3521  0132 00            	dc.b	0
3522  0133 46            	dc.b	70
3523  0134 49            	dc.b	73
3524  0135 49            	dc.b	73
3525  0136 49            	dc.b	73
3526  0137 31            	dc.b	49
3527  0138 00            	dc.b	0
3528  0139 01            	dc.b	1
3529  013a 01            	dc.b	1
3530  013b 7f            	dc.b	127
3531  013c 01            	dc.b	1
3532  013d 01            	dc.b	1
3533  013e 00            	dc.b	0
3534  013f 3f            	dc.b	63
3535  0140 40            	dc.b	64
3536  0141 40            	dc.b	64
3537  0142 40            	dc.b	64
3538  0143 3f            	dc.b	63
3539  0144 00            	dc.b	0
3540  0145 1f            	dc.b	31
3541  0146 20            	dc.b	32
3542  0147 40            	dc.b	64
3543  0148 20            	dc.b	32
3544  0149 1f            	dc.b	31
3545  014a 00            	dc.b	0
3546  014b 3f            	dc.b	63
3547  014c 40            	dc.b	64
3548  014d 38            	dc.b	56
3549  014e 40            	dc.b	64
3550  014f 3f            	dc.b	63
3551  0150 00            	dc.b	0
3552  0151 63            	dc.b	99
3553  0152 14            	dc.b	20
3554  0153 08            	dc.b	8
3555  0154 14            	dc.b	20
3556  0155 63            	dc.b	99
3557  0156 00            	dc.b	0
3558  0157 07            	dc.b	7
3559  0158 08            	dc.b	8
3560  0159 70            	dc.b	112
3561  015a 08            	dc.b	8
3562  015b 07            	dc.b	7
3563  015c 00            	dc.b	0
3564  015d 61            	dc.b	97
3565  015e 51            	dc.b	81
3566  015f 49            	dc.b	73
3567  0160 45            	dc.b	69
3568  0161 43            	dc.b	67
3569  0162 00            	dc.b	0
3570  0163 00            	dc.b	0
3571  0164 7f            	dc.b	127
3572  0165 41            	dc.b	65
3573  0166 41            	dc.b	65
3574  0167 00            	dc.b	0
3575  0168 00            	dc.b	0
3576  0169 02            	dc.b	2
3577  016a 04            	dc.b	4
3578  016b 08            	dc.b	8
3579  016c 10            	dc.b	16
3580  016d 20            	dc.b	32
3581  016e 00            	dc.b	0
3582  016f 00            	dc.b	0
3583  0170 41            	dc.b	65
3584  0171 41            	dc.b	65
3585  0172 7f            	dc.b	127
3586  0173 00            	dc.b	0
3587  0174 00            	dc.b	0
3588  0175 04            	dc.b	4
3589  0176 02            	dc.b	2
3590  0177 01            	dc.b	1
3591  0178 02            	dc.b	2
3592  0179 04            	dc.b	4
3593  017a 00            	dc.b	0
3594  017b 40            	dc.b	64
3595  017c 40            	dc.b	64
3596  017d 40            	dc.b	64
3597  017e 40            	dc.b	64
3598  017f 40            	dc.b	64
3599  0180 00            	dc.b	0
3600  0181 00            	dc.b	0
3601  0182 01            	dc.b	1
3602  0183 02            	dc.b	2
3603  0184 04            	dc.b	4
3604  0185 00            	dc.b	0
3605  0186 00            	dc.b	0
3606  0187 20            	dc.b	32
3607  0188 54            	dc.b	84
3608  0189 54            	dc.b	84
3609  018a 54            	dc.b	84
3610  018b 78            	dc.b	120
3611  018c 00            	dc.b	0
3612  018d 7f            	dc.b	127
3613  018e 48            	dc.b	72
3614  018f 44            	dc.b	68
3615  0190 44            	dc.b	68
3616  0191 38            	dc.b	56
3617  0192 00            	dc.b	0
3618  0193 38            	dc.b	56
3619  0194 44            	dc.b	68
3620  0195 44            	dc.b	68
3621  0196 44            	dc.b	68
3622  0197 20            	dc.b	32
3623  0198 00            	dc.b	0
3624  0199 38            	dc.b	56
3625  019a 44            	dc.b	68
3626  019b 44            	dc.b	68
3627  019c 48            	dc.b	72
3628  019d 7f            	dc.b	127
3629  019e 00            	dc.b	0
3630  019f 38            	dc.b	56
3631  01a0 54            	dc.b	84
3632  01a1 54            	dc.b	84
3633  01a2 54            	dc.b	84
3634  01a3 18            	dc.b	24
3635  01a4 00            	dc.b	0
3636  01a5 08            	dc.b	8
3637  01a6 7e            	dc.b	126
3638  01a7 09            	dc.b	9
3639  01a8 01            	dc.b	1
3640  01a9 02            	dc.b	2
3641  01aa 00            	dc.b	0
3642  01ab 18            	dc.b	24
3643  01ac a4            	dc.b	164
3644  01ad a4            	dc.b	164
3645  01ae a4            	dc.b	164
3646  01af 7c            	dc.b	124
3647  01b0 00            	dc.b	0
3648  01b1 7f            	dc.b	127
3649  01b2 08            	dc.b	8
3650  01b3 04            	dc.b	4
3651  01b4 04            	dc.b	4
3652  01b5 78            	dc.b	120
3653  01b6 00            	dc.b	0
3654  01b7 00            	dc.b	0
3655  01b8 44            	dc.b	68
3656  01b9 7d            	dc.b	125
3657  01ba 40            	dc.b	64
3658  01bb 00            	dc.b	0
3659  01bc 00            	dc.b	0
3660  01bd 40            	dc.b	64
3661  01be 80            	dc.b	128
3662  01bf 84            	dc.b	132
3663  01c0 7d            	dc.b	125
3664  01c1 00            	dc.b	0
3665  01c2 00            	dc.b	0
3666  01c3 7f            	dc.b	127
3667  01c4 10            	dc.b	16
3668  01c5 28            	dc.b	40
3669  01c6 44            	dc.b	68
3670  01c7 00            	dc.b	0
3671  01c8 00            	dc.b	0
3672  01c9 00            	dc.b	0
3673  01ca 41            	dc.b	65
3674  01cb 7f            	dc.b	127
3675  01cc 40            	dc.b	64
3676  01cd 00            	dc.b	0
3677  01ce 00            	dc.b	0
3678  01cf 7c            	dc.b	124
3679  01d0 04            	dc.b	4
3680  01d1 18            	dc.b	24
3681  01d2 04            	dc.b	4
3682  01d3 78            	dc.b	120
3683  01d4 00            	dc.b	0
3684  01d5 7c            	dc.b	124
3685  01d6 08            	dc.b	8
3686  01d7 04            	dc.b	4
3687  01d8 04            	dc.b	4
3688  01d9 78            	dc.b	120
3689  01da 00            	dc.b	0
3690  01db 38            	dc.b	56
3691  01dc 44            	dc.b	68
3692  01dd 44            	dc.b	68
3693  01de 44            	dc.b	68
3694  01df 38            	dc.b	56
3695  01e0 00            	dc.b	0
3696  01e1 fc            	dc.b	252
3697  01e2 24            	dc.b	36
3698  01e3 24            	dc.b	36
3699  01e4 24            	dc.b	36
3700  01e5 18            	dc.b	24
3701  01e6 00            	dc.b	0
3702  01e7 18            	dc.b	24
3703  01e8 24            	dc.b	36
3704  01e9 24            	dc.b	36
3705  01ea 18            	dc.b	24
3706  01eb fc            	dc.b	252
3707  01ec 00            	dc.b	0
3708  01ed 7c            	dc.b	124
3709  01ee 08            	dc.b	8
3710  01ef 04            	dc.b	4
3711  01f0 04            	dc.b	4
3712  01f1 08            	dc.b	8
3713  01f2 00            	dc.b	0
3714  01f3 48            	dc.b	72
3715  01f4 54            	dc.b	84
3716  01f5 54            	dc.b	84
3717  01f6 54            	dc.b	84
3718  01f7 20            	dc.b	32
3719  01f8 00            	dc.b	0
3720  01f9 04            	dc.b	4
3721  01fa 3f            	dc.b	63
3722  01fb 44            	dc.b	68
3723  01fc 40            	dc.b	64
3724  01fd 20            	dc.b	32
3725  01fe 00            	dc.b	0
3726  01ff 3c            	dc.b	60
3727  0200 40            	dc.b	64
3728  0201 40            	dc.b	64
3729  0202 20            	dc.b	32
3730  0203 7c            	dc.b	124
3731  0204 00            	dc.b	0
3732  0205 1c            	dc.b	28
3733  0206 20            	dc.b	32
3734  0207 40            	dc.b	64
3735  0208 20            	dc.b	32
3736  0209 1c            	dc.b	28
3737  020a 00            	dc.b	0
3738  020b 3c            	dc.b	60
3739  020c 40            	dc.b	64
3740  020d 30            	dc.b	48
3741  020e 40            	dc.b	64
3742  020f 3c            	dc.b	60
3743  0210 00            	dc.b	0
3744  0211 44            	dc.b	68
3745  0212 28            	dc.b	40
3746  0213 10            	dc.b	16
3747  0214 28            	dc.b	40
3748  0215 44            	dc.b	68
3749  0216 00            	dc.b	0
3750  0217 1c            	dc.b	28
3751  0218 a0            	dc.b	160
3752  0219 a0            	dc.b	160
3753  021a a0            	dc.b	160
3754  021b 7c            	dc.b	124
3755  021c 00            	dc.b	0
3756  021d 44            	dc.b	68
3757  021e 64            	dc.b	100
3758  021f 54            	dc.b	84
3759  0220 4c            	dc.b	76
3760  0221 44            	dc.b	68
3761  0222 14            	dc.b	20
3762  0223 14            	dc.b	20
3763  0224 14            	dc.b	20
3764  0225 14            	dc.b	20
3765  0226 14            	dc.b	20
3766  0227 14            	dc.b	20
3826                     ; 108 void LED_WrDat(u8t ucData)
3826                     ; 109 {
3828                     	switch	.text
3829  0000               _LED_WrDat:
3831  0000 88            	push	a
3832  0001 88            	push	a
3833       00000001      OFST:	set	1
3836                     ; 110     u8t i = 8;
3838  0002 a608          	ld	a,#8
3839  0004 6b01          	ld	(OFST+0,sp),a
3840                     ; 111     LED_DC   = 1;
3842  0006 7218500a      	bset	_PC_ODR_4
3843                     ; 112     LED_SCL  = 0;
3845  000a 721f500a      	bres	_PC_ODR_7
3847  000e 201c          	jra	L7222
3848  0010               L3222:
3849                     ; 116         if (ucData & 0x80)
3851  0010 7b02          	ld	a,(OFST+1,sp)
3852  0012 a580          	bcp	a,#128
3853  0014 2706          	jreq	L3322
3854                     ; 117             LED_SDA = 1;
3856  0016 721c500a      	bset	_PC_ODR_6
3858  001a 2004          	jra	L5322
3859  001c               L3322:
3860                     ; 119             LED_SDA = 0;
3862  001c 721d500a      	bres	_PC_ODR_6
3863  0020               L5322:
3864                     ; 121         LED_SCL = 1; 
3866  0020 721e500a      	bset	_PC_ODR_7
3867                     ; 122         _asm("nop");
3870  0024 9d            nop
3872                     ; 123 				_asm("nop");
3875  0025 9d            nop
3877                     ; 124         LED_SCL = 0;    
3879  0026 721f500a      	bres	_PC_ODR_7
3880                     ; 125         ucData <<= 1;    
3882  002a 0802          	sll	(OFST+1,sp)
3883  002c               L7222:
3884                     ; 114     while (i--)
3886  002c 7b01          	ld	a,(OFST+0,sp)
3887  002e 0a01          	dec	(OFST+0,sp)
3888  0030 4d            	tnz	a
3889  0031 26dd          	jrne	L3222
3890                     ; 128     return;
3893  0033 85            	popw	x
3894  0034 81            	ret
3940                     ; 135 void LED_WrCmd(u8t ucCmd)
3940                     ; 136 {
3941                     	switch	.text
3942  0035               _LED_WrCmd:
3944  0035 88            	push	a
3945  0036 88            	push	a
3946       00000001      OFST:	set	1
3949                     ; 137     u8t i = 8;
3951  0037 a608          	ld	a,#8
3952  0039 6b01          	ld	(OFST+0,sp),a
3953                     ; 138     LED_DC   = 0;
3955  003b 7219500a      	bres	_PC_ODR_4
3956                     ; 139     LED_SCL  = 0;
3958  003f 721f500a      	bres	_PC_ODR_7
3960  0043 201c          	jra	L5622
3961  0045               L1622:
3962                     ; 142 			if (ucCmd & 0x80)
3964  0045 7b02          	ld	a,(OFST+1,sp)
3965  0047 a580          	bcp	a,#128
3966  0049 2706          	jreq	L1722
3967                     ; 143 				LED_SDA = 1;
3969  004b 721c500a      	bset	_PC_ODR_6
3971  004f 2004          	jra	L3722
3972  0051               L1722:
3973                     ; 145 				LED_SDA = 0;
3975  0051 721d500a      	bres	_PC_ODR_6
3976  0055               L3722:
3977                     ; 146 			LED_SCL = 1;
3979  0055 721e500a      	bset	_PC_ODR_7
3980                     ; 147 			_asm("nop");
3983  0059 9d            nop
3985                     ; 148 			_asm("nop");
3988  005a 9d            nop
3990                     ; 149 			LED_SCL = 0;    
3992  005b 721f500a      	bres	_PC_ODR_7
3993                     ; 150 			ucCmd <<= 1;   
3995  005f 0802          	sll	(OFST+1,sp)
3996  0061               L5622:
3997                     ; 140     while (i--)
3999  0061 7b01          	ld	a,(OFST+0,sp)
4000  0063 0a01          	dec	(OFST+0,sp)
4001  0065 4d            	tnz	a
4002  0066 26dd          	jrne	L1622
4003                     ; 153     return;
4006  0068 85            	popw	x
4007  0069 81            	ret
4051                     ; 161 void LED_SetPos(u8t ucIdxX, u8t ucIdxY)
4051                     ; 162 { 
4052                     	switch	.text
4053  006a               _LED_SetPos:
4055  006a 89            	pushw	x
4056       00000000      OFST:	set	0
4059                     ; 163     LED_WrCmd(0xb0 + ucIdxY);
4061  006b 9f            	ld	a,xl
4062  006c abb0          	add	a,#176
4063  006e adc5          	call	_LED_WrCmd
4065                     ; 164     LED_WrCmd(((ucIdxX & 0xf0) >> 4) | 0x10);
4067  0070 7b01          	ld	a,(OFST+1,sp)
4068  0072 a4f0          	and	a,#240
4069  0074 4e            	swap	a
4070  0075 a40f          	and	a,#15
4071  0077 aa10          	or	a,#16
4072  0079 adba          	call	_LED_WrCmd
4074                     ; 165     LED_WrCmd((ucIdxX & 0x0f) | 0x00); 
4076  007b 7b01          	ld	a,(OFST+1,sp)
4077  007d a40f          	and	a,#15
4078  007f adb4          	call	_LED_WrCmd
4080                     ; 166 } 
4083  0081 85            	popw	x
4084  0082 81            	ret
4138                     ; 171 void LED_Fill(u8t ucData)
4138                     ; 172 {
4139                     	switch	.text
4140  0083               _LED_Fill:
4142  0083 88            	push	a
4143  0084 89            	pushw	x
4144       00000002      OFST:	set	2
4147                     ; 175     for(ucPage = 0; ucPage < 8; ucPage++)
4149  0085 0f01          	clr	(OFST-1,sp)
4150  0087               L5432:
4151                     ; 177         LED_WrCmd(0xb0 + ucPage);  //0xb0+0~7¡À¨ª¨º?¨°30~7
4153  0087 7b01          	ld	a,(OFST-1,sp)
4154  0089 abb0          	add	a,#176
4155  008b ada8          	call	_LED_WrCmd
4157                     ; 178         LED_WrCmd(0x00);           //0x00+0~16¡À¨ª¨º???128¨¢D¡¤?3¨¦16¡Á¨¦??¦Ì??¡¤?¨²?3¡Á¨¦?D¦Ì?¦Ì¨²??¨¢D
4159  008d 4f            	clr	a
4160  008e ada5          	call	_LED_WrCmd
4162                     ; 179         LED_WrCmd(0x10);           //0x10+0~16¡À¨ª¨º???128¨¢D¡¤?3¨¦16¡Á¨¦??¦Ì??¡¤?¨´?¨²¦Ì¨²??¡Á¨¦
4164  0090 a610          	ld	a,#16
4165  0092 ada1          	call	_LED_WrCmd
4167                     ; 180         for(ucColumn = 0; ucColumn < 128; ucColumn++)
4169  0094 0f02          	clr	(OFST+0,sp)
4170  0096               L3532:
4171                     ; 182             LED_WrDat(ucData);
4173  0096 7b03          	ld	a,(OFST+1,sp)
4174  0098 cd0000        	call	_LED_WrDat
4176                     ; 180         for(ucColumn = 0; ucColumn < 128; ucColumn++)
4178  009b 0c02          	inc	(OFST+0,sp)
4181  009d 7b02          	ld	a,(OFST+0,sp)
4182  009f a180          	cp	a,#128
4183  00a1 25f3          	jrult	L3532
4184                     ; 175     for(ucPage = 0; ucPage < 8; ucPage++)
4186  00a3 0c01          	inc	(OFST-1,sp)
4189  00a5 7b01          	ld	a,(OFST-1,sp)
4190  00a7 a108          	cp	a,#8
4191  00a9 25dc          	jrult	L5432
4192                     ; 185 } 
4195  00ab 5b03          	addw	sp,#3
4196  00ad 81            	ret
4231                     ; 187 void SetStartColumn(u8t ucData)
4231                     ; 188 {
4232                     	switch	.text
4233  00ae               _SetStartColumn:
4235  00ae 88            	push	a
4236       00000000      OFST:	set	0
4239                     ; 189     LED_WrCmd(0x00+ucData % 16);   // Set Lower Column Start Address for Page Addressing Mode
4241  00af a40f          	and	a,#15
4242  00b1 ad82          	call	_LED_WrCmd
4244                     ; 191     LED_WrCmd(0x10+ucData / 16);   // Set Higher Column Start Address for Page Addressing Mode
4246  00b3 7b01          	ld	a,(OFST+1,sp)
4247  00b5 4e            	swap	a
4248  00b6 a40f          	and	a,#15
4249  00b8 ab10          	add	a,#16
4250  00ba cd0035        	call	_LED_WrCmd
4252                     ; 193 }
4255  00bd 84            	pop	a
4256  00be 81            	ret
4291                     ; 195 void SetAddressingMode(u8t ucData)
4291                     ; 196 {
4292                     	switch	.text
4293  00bf               _SetAddressingMode:
4295  00bf 88            	push	a
4296       00000000      OFST:	set	0
4299                     ; 197     LED_WrCmd(0x20);        // Set Memory Addressing Mode
4301  00c0 a620          	ld	a,#32
4302  00c2 cd0035        	call	_LED_WrCmd
4304                     ; 198     LED_WrCmd(ucData);      // Default => 0x02
4306  00c5 7b01          	ld	a,(OFST+1,sp)
4307  00c7 cd0035        	call	_LED_WrCmd
4309                     ; 202 }
4312  00ca 84            	pop	a
4313  00cb 81            	ret
4357                     ; 204 void SetColumnAddress(u8t a, u8t b)
4357                     ; 205 {
4358                     	switch	.text
4359  00cc               _SetColumnAddress:
4361  00cc 89            	pushw	x
4362       00000000      OFST:	set	0
4365                     ; 206     LED_WrCmd(0x21);        // Set Column Address
4367  00cd a621          	ld	a,#33
4368  00cf cd0035        	call	_LED_WrCmd
4370                     ; 207     LED_WrCmd(a);           // Default => 0x00 (Column Start Address)
4372  00d2 7b01          	ld	a,(OFST+1,sp)
4373  00d4 cd0035        	call	_LED_WrCmd
4375                     ; 208     LED_WrCmd(b);           // Default => 0x7F (Column End Address)
4377  00d7 7b02          	ld	a,(OFST+2,sp)
4378  00d9 cd0035        	call	_LED_WrCmd
4380                     ; 209 }
4383  00dc 85            	popw	x
4384  00dd 81            	ret
4428                     ; 211 void SetPageAddress(u8t a, u8t b)
4428                     ; 212 {
4429                     	switch	.text
4430  00de               _SetPageAddress:
4432  00de 89            	pushw	x
4433       00000000      OFST:	set	0
4436                     ; 213     LED_WrCmd(0x22);        // Set Page Address
4438  00df a622          	ld	a,#34
4439  00e1 cd0035        	call	_LED_WrCmd
4441                     ; 214     LED_WrCmd(a);           // Default => 0x00 (Page Start Address)
4443  00e4 7b01          	ld	a,(OFST+1,sp)
4444  00e6 cd0035        	call	_LED_WrCmd
4446                     ; 215     LED_WrCmd(b);           // Default => 0x07 (Page End Address)
4448  00e9 7b02          	ld	a,(OFST+2,sp)
4449  00eb cd0035        	call	_LED_WrCmd
4451                     ; 216 }
4454  00ee 85            	popw	x
4455  00ef 81            	ret
4490                     ; 218 void SetStartLine(u8t ucData)
4490                     ; 219 {
4491                     	switch	.text
4492  00f0               _SetStartLine:
4496                     ; 220     LED_WrCmd(0x40|ucData); // Set Display Start Line
4498  00f0 aa40          	or	a,#64
4499  00f2 cd0035        	call	_LED_WrCmd
4501                     ; 222 }
4504  00f5 81            	ret
4539                     ; 224 void SetContrastControl(u8t ucData)
4539                     ; 225 {
4540                     	switch	.text
4541  00f6               _SetContrastControl:
4543  00f6 88            	push	a
4544       00000000      OFST:	set	0
4547                     ; 226     LED_WrCmd(0x81);        // Set Contrast Control
4549  00f7 a681          	ld	a,#129
4550  00f9 cd0035        	call	_LED_WrCmd
4552                     ; 227     LED_WrCmd(ucData);      // Default => 0x7F
4554  00fc 7b01          	ld	a,(OFST+1,sp)
4555  00fe cd0035        	call	_LED_WrCmd
4557                     ; 228 }
4560  0101 84            	pop	a
4561  0102 81            	ret
4596                     ; 230 void SetChargePump(u8t ucData)
4596                     ; 231 {
4597                     	switch	.text
4598  0103               _SetChargePump:
4600  0103 88            	push	a
4601       00000000      OFST:	set	0
4604                     ; 232     LED_WrCmd(0x8D);        // Set Charge Pump
4606  0104 a68d          	ld	a,#141
4607  0106 cd0035        	call	_LED_WrCmd
4609                     ; 233     LED_WrCmd(0x10|ucData); // Default => 0x10
4611  0109 7b01          	ld	a,(OFST+1,sp)
4612  010b aa10          	or	a,#16
4613  010d cd0035        	call	_LED_WrCmd
4615                     ; 236 }
4618  0110 84            	pop	a
4619  0111 81            	ret
4654                     ; 238 void SetSegmentRemap(u8t ucData)
4654                     ; 239 {
4655                     	switch	.text
4656  0112               _SetSegmentRemap:
4660                     ; 240     LED_WrCmd(0xA0|ucData); // Set Segment Re-Map
4662  0112 aaa0          	or	a,#160
4663  0114 cd0035        	call	_LED_WrCmd
4665                     ; 244 }
4668  0117 81            	ret
4703                     ; 246 void SetEntireDisplay(u8t ucData)
4703                     ; 247 {
4704                     	switch	.text
4705  0118               _SetEntireDisplay:
4709                     ; 248     LED_WrCmd(0xA4|ucData); // Set Entire Display On / Off
4711  0118 aaa4          	or	a,#164
4712  011a cd0035        	call	_LED_WrCmd
4714                     ; 252 }
4717  011d 81            	ret
4752                     ; 254 void SetInverseDisplay(u8t ucData)
4752                     ; 255 {
4753                     	switch	.text
4754  011e               _SetInverseDisplay:
4758                     ; 256     LED_WrCmd(0xA6|ucData); // Set Inverse Display On/Off
4760  011e aaa6          	or	a,#166
4761  0120 cd0035        	call	_LED_WrCmd
4763                     ; 260 }
4766  0123 81            	ret
4801                     ; 262 void SetMultiplexRatio(u8t ucData)
4801                     ; 263 {
4802                     	switch	.text
4803  0124               _SetMultiplexRatio:
4805  0124 88            	push	a
4806       00000000      OFST:	set	0
4809                     ; 264     LED_WrCmd(0xA8);        // Set Multiplex Ratio
4811  0125 a6a8          	ld	a,#168
4812  0127 cd0035        	call	_LED_WrCmd
4814                     ; 265     LED_WrCmd(ucData);      // Default => 0x3F (1/64 Duty)
4816  012a 7b01          	ld	a,(OFST+1,sp)
4817  012c cd0035        	call	_LED_WrCmd
4819                     ; 266 }
4822  012f 84            	pop	a
4823  0130 81            	ret
4858                     ; 268 void SetDisplayOnOff(u8t ucData)
4858                     ; 269 {
4859                     	switch	.text
4860  0131               _SetDisplayOnOff:
4864                     ; 270     LED_WrCmd(0xAE|ucData); // Set Display On/Off
4866  0131 aaae          	or	a,#174
4867  0133 cd0035        	call	_LED_WrCmd
4869                     ; 274 }
4872  0136 81            	ret
4907                     ; 276 void SetStartPage(u8t ucData)
4907                     ; 277 {
4908                     	switch	.text
4909  0137               _SetStartPage:
4913                     ; 278     LED_WrCmd(0xB0|ucData); // Set Page Start Address for Page Addressing Mode
4915  0137 aab0          	or	a,#176
4916  0139 cd0035        	call	_LED_WrCmd
4918                     ; 280 }
4921  013c 81            	ret
4956                     ; 282 void SetCommonRemap(u8t ucData)
4956                     ; 283 {
4957                     	switch	.text
4958  013d               _SetCommonRemap:
4962                     ; 284     LED_WrCmd(0xC0|ucData); // Set COM Output Scan Direction
4964  013d aac0          	or	a,#192
4965  013f cd0035        	call	_LED_WrCmd
4967                     ; 288 }
4970  0142 81            	ret
5005                     ; 290 void SetDisplayOffset(u8t ucData)
5005                     ; 291 {
5006                     	switch	.text
5007  0143               _SetDisplayOffset:
5009  0143 88            	push	a
5010       00000000      OFST:	set	0
5013                     ; 292     LED_WrCmd(0xD3);        // Set Display Offset
5015  0144 a6d3          	ld	a,#211
5016  0146 cd0035        	call	_LED_WrCmd
5018                     ; 293     LED_WrCmd(ucData);      // Default => 0x00
5020  0149 7b01          	ld	a,(OFST+1,sp)
5021  014b cd0035        	call	_LED_WrCmd
5023                     ; 294 }
5026  014e 84            	pop	a
5027  014f 81            	ret
5062                     ; 296 void SetDisplayClock(u8t ucData)
5062                     ; 297 {
5063                     	switch	.text
5064  0150               _SetDisplayClock:
5066  0150 88            	push	a
5067       00000000      OFST:	set	0
5070                     ; 298     LED_WrCmd(0xD5);        // Set Display Clock Divide Ratio / Oscillator Frequency
5072  0151 a6d5          	ld	a,#213
5073  0153 cd0035        	call	_LED_WrCmd
5075                     ; 299     LED_WrCmd(ucData);      // Default => 0x80
5077  0156 7b01          	ld	a,(OFST+1,sp)
5078  0158 cd0035        	call	_LED_WrCmd
5080                     ; 302 }
5083  015b 84            	pop	a
5084  015c 81            	ret
5119                     ; 304 void SetPrechargePeriod(u8t ucData)
5119                     ; 305 {
5120                     	switch	.text
5121  015d               _SetPrechargePeriod:
5123  015d 88            	push	a
5124       00000000      OFST:	set	0
5127                     ; 306     LED_WrCmd(0xD9);        // Set Pre-Charge Period
5129  015e a6d9          	ld	a,#217
5130  0160 cd0035        	call	_LED_WrCmd
5132                     ; 307     LED_WrCmd(ucData);      // Default => 0x22 (2 Display Clocks [Phase 2] / 2 Display Clocks [Phase 1])
5134  0163 7b01          	ld	a,(OFST+1,sp)
5135  0165 cd0035        	call	_LED_WrCmd
5137                     ; 310 }
5140  0168 84            	pop	a
5141  0169 81            	ret
5176                     ; 312 void SetCommonConfig(u8t ucData)
5176                     ; 313 {
5177                     	switch	.text
5178  016a               _SetCommonConfig:
5180  016a 88            	push	a
5181       00000000      OFST:	set	0
5184                     ; 314     LED_WrCmd(0xDA);        // Set COM Pins Hardware Configuration
5186  016b a6da          	ld	a,#218
5187  016d cd0035        	call	_LED_WrCmd
5189                     ; 315     LED_WrCmd(0x02|ucData); // Default => 0x12 (0x10)
5191  0170 7b01          	ld	a,(OFST+1,sp)
5192  0172 aa02          	or	a,#2
5193  0174 cd0035        	call	_LED_WrCmd
5195                     ; 318 }
5198  0177 84            	pop	a
5199  0178 81            	ret
5234                     ; 320 void SetVCOMH(u8t ucData)
5234                     ; 321 {
5235                     	switch	.text
5236  0179               _SetVCOMH:
5238  0179 88            	push	a
5239       00000000      OFST:	set	0
5242                     ; 322     LED_WrCmd(0xDB);        // Set VCOMH Deselect Level
5244  017a a6db          	ld	a,#219
5245  017c cd0035        	call	_LED_WrCmd
5247                     ; 323     LED_WrCmd(ucData);      // Default => 0x20 (0.77*VCC)
5249  017f 7b01          	ld	a,(OFST+1,sp)
5250  0181 cd0035        	call	_LED_WrCmd
5252                     ; 324 }
5255  0184 84            	pop	a
5256  0185 81            	ret
5280                     ; 326 void SetNop(void)
5280                     ; 327 {
5281                     	switch	.text
5282  0186               _SetNop:
5286                     ; 328     LED_WrCmd(0xE3);        // Command for No Operation
5288  0186 a6e3          	ld	a,#227
5289  0188 cd0035        	call	_LED_WrCmd
5291                     ; 329 }
5294  018b 81            	ret
5347                     ; 335 void LED_Init(void)        
5347                     ; 336 {
5348                     	switch	.text
5349  018c               _LED_Init:
5351  018c 88            	push	a
5352       00000001      OFST:	set	1
5355                     ; 337 		u8t i = 10;
5357  018d a60a          	ld	a,#10
5358  018f 6b01          	ld	(OFST+0,sp),a
5359                     ; 338     LED_SCL = 1;      
5361  0191 721e500a      	bset	_PC_ODR_7
5362                     ; 339     LED_RST = 0;
5364  0195 721b500a      	bres	_PC_ODR_5
5366  0199               L5303:
5367                     ; 341 		while (i--);
5369  0199 7b01          	ld	a,(OFST+0,sp)
5370  019b 0a01          	dec	(OFST+0,sp)
5371  019d 4d            	tnz	a
5372  019e 26f9          	jrne	L5303
5373                     ; 343     LED_RST = 1;
5375  01a0 721a500a      	bset	_PC_ODR_5
5376                     ; 345     SetDisplayOnOff(0x00);     // Display Off (0x00/0x01)
5378  01a4 4f            	clr	a
5379  01a5 ad8a          	call	_SetDisplayOnOff
5381                     ; 346     SetDisplayClock(0x80);     // Set Clock as 100 Frames/Sec
5383  01a7 a680          	ld	a,#128
5384  01a9 ada5          	call	_SetDisplayClock
5386                     ; 347     SetMultiplexRatio(0x3F);   // 1/64 Duty (0x0F~0x3F)
5388  01ab a63f          	ld	a,#63
5389  01ad cd0124        	call	_SetMultiplexRatio
5391                     ; 348     SetDisplayOffset(0x00);    // Shift Mapping RAM Counter (0x00~0x3F)
5393  01b0 4f            	clr	a
5394  01b1 ad90          	call	_SetDisplayOffset
5396                     ; 349     SetStartLine(0x00);        // Set Mapping RAM Display Start Line (0x00~0x3F)
5398  01b3 4f            	clr	a
5399  01b4 cd00f0        	call	_SetStartLine
5401                     ; 350     SetChargePump(0x04);       // Enable Embedded DC/DC Converter (0x00/0x04)
5403  01b7 a604          	ld	a,#4
5404  01b9 cd0103        	call	_SetChargePump
5406                     ; 351     SetAddressingMode(0x02);   // Set Page Addressing Mode (0x00/0x01/0x02)
5408  01bc a602          	ld	a,#2
5409  01be cd00bf        	call	_SetAddressingMode
5411                     ; 352     SetSegmentRemap(0x01);     // Set SEG/Column Mapping     0x00¡Á¨®¨®¨°¡¤¡ä?? 0x01?y3¡ê
5413  01c1 a601          	ld	a,#1
5414  01c3 cd0112        	call	_SetSegmentRemap
5416                     ; 353     SetCommonRemap(0x08);      // Set COM/Row Scan Direction 0x00¨¦???¡¤¡ä?? 0x08?y3¡ê
5418  01c6 a608          	ld	a,#8
5419  01c8 cd013d        	call	_SetCommonRemap
5421                     ; 354     SetCommonConfig(0x10);     // Set Sequential Configuration (0x00/0x10)
5423  01cb a610          	ld	a,#16
5424  01cd ad9b          	call	_SetCommonConfig
5426                     ; 355     SetContrastControl(0xCF);  // Set SEG Output Current
5428  01cf a6cf          	ld	a,#207
5429  01d1 cd00f6        	call	_SetContrastControl
5431                     ; 356     SetPrechargePeriod(0xF1);  // Set Pre-Charge as 15 Clocks & Discharge as 1 Clock
5433  01d4 a6f1          	ld	a,#241
5434  01d6 ad85          	call	_SetPrechargePeriod
5436                     ; 357     SetVCOMH(0x40);            // Set VCOM Deselect Level
5438  01d8 a640          	ld	a,#64
5439  01da ad9d          	call	_SetVCOMH
5441                     ; 358     SetEntireDisplay(0x00);    // Disable Entire Display On (0x00/0x01)
5443  01dc 4f            	clr	a
5444  01dd cd0118        	call	_SetEntireDisplay
5446                     ; 359     SetInverseDisplay(0x00);   // Disable Inverse Display On (0x00/0x01)  
5448  01e0 4f            	clr	a
5449  01e1 cd011e        	call	_SetInverseDisplay
5451                     ; 360     SetDisplayOnOff(0x01);     // Display On (0x00/0x01)
5453  01e4 a601          	ld	a,#1
5454  01e6 cd0131        	call	_SetDisplayOnOff
5456                     ; 361     LED_Fill(0x00);            // 3?¨º????¨¢
5458  01e9 4f            	clr	a
5459  01ea cd0083        	call	_LED_Fill
5461                     ; 362     LED_SetPos(0,0);
5463  01ed 5f            	clrw	x
5464  01ee 4f            	clr	a
5465  01ef 95            	ld	xh,a
5466  01f0 cd006a        	call	_LED_SetPos
5468                     ; 364     return;
5471  01f3 84            	pop	a
5472  01f4 81            	ret
5545                     ; 376 void LED_P6x8Char(u8t ucIdxX, u8t ucIdxY, u8t ucData)
5545                     ; 377 {
5546                     	switch	.text
5547  01f5               _LED_P6x8Char:
5549  01f5 89            	pushw	x
5550  01f6 89            	pushw	x
5551       00000002      OFST:	set	2
5554                     ; 380     ucDataTmp = ucData-32;
5556  01f7 7b07          	ld	a,(OFST+5,sp)
5557  01f9 a020          	sub	a,#32
5558  01fb 6b01          	ld	(OFST-1,sp),a
5559                     ; 381     if(ucIdxX > 122)
5561  01fd 9e            	ld	a,xh
5562  01fe a17b          	cp	a,#123
5563  0200 2504          	jrult	L7703
5564                     ; 383         ucIdxX = 0;
5566  0202 0f03          	clr	(OFST+1,sp)
5567                     ; 384         ucIdxY++;
5569  0204 0c04          	inc	(OFST+2,sp)
5570  0206               L7703:
5571                     ; 387     LED_SetPos(ucIdxX, ucIdxY);
5573  0206 7b04          	ld	a,(OFST+2,sp)
5574  0208 97            	ld	xl,a
5575  0209 7b03          	ld	a,(OFST+1,sp)
5576  020b 95            	ld	xh,a
5577  020c cd006a        	call	_LED_SetPos
5579                     ; 389     for(i = 0; i < 6; i++)
5581  020f 0f02          	clr	(OFST+0,sp)
5582  0211               L1013:
5583                     ; 391         LED_WrDat(F6x8[ucDataTmp][i]);  
5585  0211 7b01          	ld	a,(OFST-1,sp)
5586  0213 97            	ld	xl,a
5587  0214 a606          	ld	a,#6
5588  0216 42            	mul	x,a
5589  0217 01            	rrwa	x,a
5590  0218 1b02          	add	a,(OFST+0,sp)
5591  021a 2401          	jrnc	L07
5592  021c 5c            	incw	x
5593  021d               L07:
5594  021d 02            	rlwa	x,a
5595  021e d60000        	ld	a,(_F6x8,x)
5596  0221 cd0000        	call	_LED_WrDat
5598                     ; 389     for(i = 0; i < 6; i++)
5600  0224 0c02          	inc	(OFST+0,sp)
5603  0226 7b02          	ld	a,(OFST+0,sp)
5604  0228 a106          	cp	a,#6
5605  022a 25e5          	jrult	L1013
5606                     ; 393 }
5609  022c 5b04          	addw	sp,#4
5610  022e 81            	ret
5693                     ; 404 void LED_P6x8Str(u8t ucIdxX, u8t ucIdxY, u8t ucDataStr[])
5693                     ; 405 {
5694                     	switch	.text
5695  022f               _LED_P6x8Str:
5697  022f 89            	pushw	x
5698  0230 5203          	subw	sp,#3
5699       00000003      OFST:	set	3
5702                     ; 408     for (j = 0; ucDataStr[j] != '\0'; j++)
5704  0232 0f02          	clr	(OFST-1,sp)
5706  0234 2048          	jra	L5513
5707  0236               L1513:
5708                     ; 410         ucDataTmp = ucDataStr[j] - 32;
5710  0236 7b08          	ld	a,(OFST+5,sp)
5711  0238 97            	ld	xl,a
5712  0239 7b09          	ld	a,(OFST+6,sp)
5713  023b 1b02          	add	a,(OFST-1,sp)
5714  023d 2401          	jrnc	L47
5715  023f 5c            	incw	x
5716  0240               L47:
5717  0240 02            	rlwa	x,a
5718  0241 f6            	ld	a,(x)
5719  0242 a020          	sub	a,#32
5720  0244 6b01          	ld	(OFST-2,sp),a
5721                     ; 411         if(ucIdxX > 122)
5723  0246 7b04          	ld	a,(OFST+1,sp)
5724  0248 a17b          	cp	a,#123
5725  024a 2504          	jrult	L1613
5726                     ; 413             ucIdxX = 0;
5728  024c 0f04          	clr	(OFST+1,sp)
5729                     ; 414             ucIdxY++;
5731  024e 0c05          	inc	(OFST+2,sp)
5732  0250               L1613:
5733                     ; 417         LED_SetPos(ucIdxX,ucIdxY); 
5735  0250 7b05          	ld	a,(OFST+2,sp)
5736  0252 97            	ld	xl,a
5737  0253 7b04          	ld	a,(OFST+1,sp)
5738  0255 95            	ld	xh,a
5739  0256 cd006a        	call	_LED_SetPos
5741                     ; 419         for(i = 0; i < 6; i++)
5743  0259 0f03          	clr	(OFST+0,sp)
5744  025b               L3613:
5745                     ; 421             LED_WrDat(F6x8[ucDataTmp][i]);  
5747  025b 7b01          	ld	a,(OFST-2,sp)
5748  025d 97            	ld	xl,a
5749  025e a606          	ld	a,#6
5750  0260 42            	mul	x,a
5751  0261 01            	rrwa	x,a
5752  0262 1b03          	add	a,(OFST+0,sp)
5753  0264 2401          	jrnc	L67
5754  0266 5c            	incw	x
5755  0267               L67:
5756  0267 02            	rlwa	x,a
5757  0268 d60000        	ld	a,(_F6x8,x)
5758  026b cd0000        	call	_LED_WrDat
5760                     ; 419         for(i = 0; i < 6; i++)
5762  026e 0c03          	inc	(OFST+0,sp)
5765  0270 7b03          	ld	a,(OFST+0,sp)
5766  0272 a106          	cp	a,#6
5767  0274 25e5          	jrult	L3613
5768                     ; 423         ucIdxX += 6;
5770  0276 7b04          	ld	a,(OFST+1,sp)
5771  0278 ab06          	add	a,#6
5772  027a 6b04          	ld	(OFST+1,sp),a
5773                     ; 408     for (j = 0; ucDataStr[j] != '\0'; j++)
5775  027c 0c02          	inc	(OFST-1,sp)
5776  027e               L5513:
5779  027e 7b08          	ld	a,(OFST+5,sp)
5780  0280 97            	ld	xl,a
5781  0281 7b09          	ld	a,(OFST+6,sp)
5782  0283 1b02          	add	a,(OFST-1,sp)
5783  0285 2401          	jrnc	L001
5784  0287 5c            	incw	x
5785  0288               L001:
5786  0288 02            	rlwa	x,a
5787  0289 7d            	tnz	(x)
5788  028a 26aa          	jrne	L1513
5789                     ; 426     return;
5792  028c 5b05          	addw	sp,#5
5793  028e 81            	ret
5818                     ; 429 void LedDisplayChs(void)
5818                     ; 430 {
5819                     	switch	.text
5820  028f               _LedDisplayChs:
5824                     ; 431 	LED_Init();
5826  028f cd018c        	call	_LED_Init
5828                     ; 432 	LED_P6x8Str(4, 1, (u8t *)"   W: ");
5830  0292 ae0265        	ldw	x,#L1023
5831  0295 89            	pushw	x
5832  0296 ae0001        	ldw	x,#1
5833  0299 a604          	ld	a,#4
5834  029b 95            	ld	xh,a
5835  029c ad91          	call	_LED_P6x8Str
5837  029e 85            	popw	x
5838                     ; 433 	LED_P6x8Str(4, 2, (u8t *)"   V: ");
5840  029f ae025e        	ldw	x,#L3023
5841  02a2 89            	pushw	x
5842  02a3 ae0002        	ldw	x,#2
5843  02a6 a604          	ld	a,#4
5844  02a8 95            	ld	xh,a
5845  02a9 ad84          	call	_LED_P6x8Str
5847  02ab 85            	popw	x
5848                     ; 434 	LED_P6x8Str(4, 3, (u8t *)"   A: ");
5850  02ac ae0257        	ldw	x,#L5023
5851  02af 89            	pushw	x
5852  02b0 ae0003        	ldw	x,#3
5853  02b3 a604          	ld	a,#4
5854  02b5 95            	ld	xh,a
5855  02b6 cd022f        	call	_LED_P6x8Str
5857  02b9 85            	popw	x
5858                     ; 435 	LED_P6x8Str(4, 4, (u8t *)" KWH: ");
5860  02ba ae0250        	ldw	x,#L7023
5861  02bd 89            	pushw	x
5862  02be ae0004        	ldw	x,#4
5863  02c1 a604          	ld	a,#4
5864  02c3 95            	ld	xh,a
5865  02c4 cd022f        	call	_LED_P6x8Str
5867  02c7 85            	popw	x
5868                     ; 436 	LED_P6x8Str(4, 5, (u8t *)" KWA: ");
5870  02c8 ae0249        	ldw	x,#L1123
5871  02cb 89            	pushw	x
5872  02cc ae0005        	ldw	x,#5
5873  02cf a604          	ld	a,#4
5874  02d1 95            	ld	xh,a
5875  02d2 cd022f        	call	_LED_P6x8Str
5877  02d5 85            	popw	x
5878                     ; 437 	LED_P6x8Str(4, 6, (u8t *)"FREQ: ");
5880  02d6 ae0242        	ldw	x,#L3123
5881  02d9 89            	pushw	x
5882  02da ae0006        	ldw	x,#6
5883  02dd a604          	ld	a,#4
5884  02df 95            	ld	xh,a
5885  02e0 cd022f        	call	_LED_P6x8Str
5887  02e3 85            	popw	x
5888                     ; 438 	LED_P6x8Str(4, 7, (u8t *)"   D: ");
5890  02e4 ae023b        	ldw	x,#L5123
5891  02e7 89            	pushw	x
5892  02e8 ae0007        	ldw	x,#7
5893  02eb a604          	ld	a,#4
5894  02ed 95            	ld	xh,a
5895  02ee cd022f        	call	_LED_P6x8Str
5897  02f1 85            	popw	x
5898                     ; 440 	LED_P6x8Str(84, 1, (u8t *)"W");
5900  02f2 ae0239        	ldw	x,#L7123
5901  02f5 89            	pushw	x
5902  02f6 ae0001        	ldw	x,#1
5903  02f9 a654          	ld	a,#84
5904  02fb 95            	ld	xh,a
5905  02fc cd022f        	call	_LED_P6x8Str
5907  02ff 85            	popw	x
5908                     ; 441 	LED_P6x8Str(84, 2, (u8t *)"V");
5910  0300 ae0237        	ldw	x,#L1223
5911  0303 89            	pushw	x
5912  0304 ae0002        	ldw	x,#2
5913  0307 a654          	ld	a,#84
5914  0309 95            	ld	xh,a
5915  030a cd022f        	call	_LED_P6x8Str
5917  030d 85            	popw	x
5918                     ; 442 	LED_P6x8Str(84, 3, (u8t *)"A");
5920  030e ae0235        	ldw	x,#L3223
5921  0311 89            	pushw	x
5922  0312 ae0003        	ldw	x,#3
5923  0315 a654          	ld	a,#84
5924  0317 95            	ld	xh,a
5925  0318 cd022f        	call	_LED_P6x8Str
5927  031b 85            	popw	x
5928                     ; 443 	LED_P6x8Str(84, 4, (u8t *)"KWH");
5930  031c ae0231        	ldw	x,#L5223
5931  031f 89            	pushw	x
5932  0320 ae0004        	ldw	x,#4
5933  0323 a654          	ld	a,#84
5934  0325 95            	ld	xh,a
5935  0326 cd022f        	call	_LED_P6x8Str
5937  0329 85            	popw	x
5938                     ; 444 	LED_P6x8Str(84, 5, (u8t *)"KWA");
5940  032a ae022d        	ldw	x,#L7223
5941  032d 89            	pushw	x
5942  032e ae0005        	ldw	x,#5
5943  0331 a654          	ld	a,#84
5944  0333 95            	ld	xh,a
5945  0334 cd022f        	call	_LED_P6x8Str
5947  0337 85            	popw	x
5948                     ; 445 	LED_P6x8Str(84, 6, (u8t *)"Hz");
5950  0338 ae022a        	ldw	x,#L1323
5951  033b 89            	pushw	x
5952  033c ae0006        	ldw	x,#6
5953  033f a654          	ld	a,#84
5954  0341 95            	ld	xh,a
5955  0342 cd022f        	call	_LED_P6x8Str
5957  0345 85            	popw	x
5958                     ; 446 	LED_P6x8Str(84, 7, (u8t *)"s");
5960  0346 ae0228        	ldw	x,#L3323
5961  0349 89            	pushw	x
5962  034a ae0007        	ldw	x,#7
5963  034d a654          	ld	a,#84
5964  034f 95            	ld	xh,a
5965  0350 cd022f        	call	_LED_P6x8Str
5967  0353 85            	popw	x
5968                     ; 447 }
5971  0354 81            	ret
6016                     ; 454 void LedDisplay(u8t dataPostion)
6016                     ; 455 {
6017                     	switch	.text
6018  0355               _LedDisplay:
6020  0355 88            	push	a
6021  0356 88            	push	a
6022       00000001      OFST:	set	1
6025                     ; 456 	u8t xPostion = 36;
6027  0357 a624          	ld	a,#36
6028  0359 6b01          	ld	(OFST+0,sp),a
6029                     ; 457 	if (dataPostion == 3 || dataPostion ==4)
6031  035b 7b02          	ld	a,(OFST+1,sp)
6032  035d a103          	cp	a,#3
6033  035f 2709          	jreq	L1623
6035  0361 7b02          	ld	a,(OFST+1,sp)
6036  0363 a104          	cp	a,#4
6037  0365 2703          	jreq	L601
6038  0367 cc03fb        	jp	L7523
6039  036a               L601:
6040  036a               L1623:
6041                     ; 459 		xPostion = 42;
6043  036a a62a          	ld	a,#42
6044  036c 6b01          	ld	(OFST+0,sp),a
6045                     ; 460 		if (dataReceive2[0] == 0)
6047  036e 3d00          	tnz	_dataReceive2
6048  0370 260e          	jrne	L3623
6049                     ; 461 			LED_P6x8Char(xPostion, dataPostion, ' ');
6051  0372 4b20          	push	#32
6052  0374 7b03          	ld	a,(OFST+2,sp)
6053  0376 97            	ld	xl,a
6054  0377 a62a          	ld	a,#42
6055  0379 95            	ld	xh,a
6056  037a cd01f5        	call	_LED_P6x8Char
6058  037d 84            	pop	a
6060  037e 200f          	jra	L5623
6061  0380               L3623:
6062                     ; 463 			LED_P6x8Char(xPostion, dataPostion, dataReceive2[0] + 48);
6064  0380 b600          	ld	a,_dataReceive2
6065  0382 ab30          	add	a,#48
6066  0384 88            	push	a
6067  0385 7b03          	ld	a,(OFST+2,sp)
6068  0387 97            	ld	xl,a
6069  0388 a62a          	ld	a,#42
6070  038a 95            	ld	xh,a
6071  038b cd01f5        	call	_LED_P6x8Char
6073  038e 84            	pop	a
6074  038f               L5623:
6075                     ; 465 		if (dataReceive2[0] == 0 && dataReceive2[1] == 0)
6077  038f 3d00          	tnz	_dataReceive2
6078  0391 2614          	jrne	L7623
6080  0393 3d01          	tnz	_dataReceive2+1
6081  0395 2610          	jrne	L7623
6082                     ; 466 			LED_P6x8Char(xPostion + 6, dataPostion, ' ');
6084  0397 4b20          	push	#32
6085  0399 7b03          	ld	a,(OFST+2,sp)
6086  039b 97            	ld	xl,a
6087  039c 7b02          	ld	a,(OFST+1,sp)
6088  039e ab06          	add	a,#6
6089  03a0 95            	ld	xh,a
6090  03a1 cd01f5        	call	_LED_P6x8Char
6092  03a4 84            	pop	a
6094  03a5 2011          	jra	L1723
6095  03a7               L7623:
6096                     ; 468 			LED_P6x8Char(xPostion + 6, dataPostion, dataReceive2[1] + 48);
6098  03a7 b601          	ld	a,_dataReceive2+1
6099  03a9 ab30          	add	a,#48
6100  03ab 88            	push	a
6101  03ac 7b03          	ld	a,(OFST+2,sp)
6102  03ae 97            	ld	xl,a
6103  03af 7b02          	ld	a,(OFST+1,sp)
6104  03b1 ab06          	add	a,#6
6105  03b3 95            	ld	xh,a
6106  03b4 cd01f5        	call	_LED_P6x8Char
6108  03b7 84            	pop	a
6109  03b8               L1723:
6110                     ; 470 		LED_P6x8Char(xPostion + 12, dataPostion, dataReceive2[2] + 48);
6112  03b8 b602          	ld	a,_dataReceive2+2
6113  03ba ab30          	add	a,#48
6114  03bc 88            	push	a
6115  03bd 7b03          	ld	a,(OFST+2,sp)
6116  03bf 97            	ld	xl,a
6117  03c0 7b02          	ld	a,(OFST+1,sp)
6118  03c2 ab0c          	add	a,#12
6119  03c4 95            	ld	xh,a
6120  03c5 cd01f5        	call	_LED_P6x8Char
6122  03c8 84            	pop	a
6123                     ; 471 		LED_P6x8Char(xPostion + 18, dataPostion, '.');
6125  03c9 4b2e          	push	#46
6126  03cb 7b03          	ld	a,(OFST+2,sp)
6127  03cd 97            	ld	xl,a
6128  03ce 7b02          	ld	a,(OFST+1,sp)
6129  03d0 ab12          	add	a,#18
6130  03d2 95            	ld	xh,a
6131  03d3 cd01f5        	call	_LED_P6x8Char
6133  03d6 84            	pop	a
6134                     ; 472 		LED_P6x8Char(xPostion + 24, dataPostion, dataReceive2[3] + 48);
6136  03d7 b603          	ld	a,_dataReceive2+3
6137  03d9 ab30          	add	a,#48
6138  03db 88            	push	a
6139  03dc 7b03          	ld	a,(OFST+2,sp)
6140  03de 97            	ld	xl,a
6141  03df 7b02          	ld	a,(OFST+1,sp)
6142  03e1 ab18          	add	a,#24
6143  03e3 95            	ld	xh,a
6144  03e4 cd01f5        	call	_LED_P6x8Char
6146  03e7 84            	pop	a
6147                     ; 473 		LED_P6x8Char(xPostion + 30, dataPostion, dataReceive2[4] + 48);
6149  03e8 b604          	ld	a,_dataReceive2+4
6150  03ea ab30          	add	a,#48
6151  03ec 88            	push	a
6152  03ed 7b03          	ld	a,(OFST+2,sp)
6153  03ef 97            	ld	xl,a
6154  03f0 7b02          	ld	a,(OFST+1,sp)
6155  03f2 ab1e          	add	a,#30
6156  03f4 95            	ld	xh,a
6157  03f5 cd01f5        	call	_LED_P6x8Char
6159  03f8 84            	pop	a
6161  03f9               L3723:
6162                     ; 498 }
6165  03f9 85            	popw	x
6166  03fa 81            	ret
6167  03fb               L7523:
6168                     ; 477 		xPostion = 36;
6170  03fb a624          	ld	a,#36
6171  03fd 6b01          	ld	(OFST+0,sp),a
6172                     ; 478 		if (dataReceive2[0] == 0)
6174  03ff 3d00          	tnz	_dataReceive2
6175  0401 260e          	jrne	L5723
6176                     ; 479 			LED_P6x8Char(xPostion, dataPostion, ' ');
6178  0403 4b20          	push	#32
6179  0405 7b03          	ld	a,(OFST+2,sp)
6180  0407 97            	ld	xl,a
6181  0408 a624          	ld	a,#36
6182  040a 95            	ld	xh,a
6183  040b cd01f5        	call	_LED_P6x8Char
6185  040e 84            	pop	a
6187  040f 200f          	jra	L7723
6188  0411               L5723:
6189                     ; 481 			LED_P6x8Char(xPostion, dataPostion, dataReceive2[0] + 48);
6191  0411 b600          	ld	a,_dataReceive2
6192  0413 ab30          	add	a,#48
6193  0415 88            	push	a
6194  0416 7b03          	ld	a,(OFST+2,sp)
6195  0418 97            	ld	xl,a
6196  0419 a624          	ld	a,#36
6197  041b 95            	ld	xh,a
6198  041c cd01f5        	call	_LED_P6x8Char
6200  041f 84            	pop	a
6201  0420               L7723:
6202                     ; 483 		if (dataReceive2[0] == 0 && dataReceive2[1] == 0)
6204  0420 3d00          	tnz	_dataReceive2
6205  0422 2614          	jrne	L1033
6207  0424 3d01          	tnz	_dataReceive2+1
6208  0426 2610          	jrne	L1033
6209                     ; 484 			LED_P6x8Char(xPostion + 6, dataPostion, ' ');
6211  0428 4b20          	push	#32
6212  042a 7b03          	ld	a,(OFST+2,sp)
6213  042c 97            	ld	xl,a
6214  042d 7b02          	ld	a,(OFST+1,sp)
6215  042f ab06          	add	a,#6
6216  0431 95            	ld	xh,a
6217  0432 cd01f5        	call	_LED_P6x8Char
6219  0435 84            	pop	a
6221  0436 2011          	jra	L3033
6222  0438               L1033:
6223                     ; 486 			LED_P6x8Char(xPostion + 6, dataPostion, dataReceive2[1] + 48);
6225  0438 b601          	ld	a,_dataReceive2+1
6226  043a ab30          	add	a,#48
6227  043c 88            	push	a
6228  043d 7b03          	ld	a,(OFST+2,sp)
6229  043f 97            	ld	xl,a
6230  0440 7b02          	ld	a,(OFST+1,sp)
6231  0442 ab06          	add	a,#6
6232  0444 95            	ld	xh,a
6233  0445 cd01f5        	call	_LED_P6x8Char
6235  0448 84            	pop	a
6236  0449               L3033:
6237                     ; 488 		if (dataReceive2[0] == 0 && dataReceive2[1] == 0 && dataReceive2[2] == 0)
6239  0449 3d00          	tnz	_dataReceive2
6240  044b 2618          	jrne	L5033
6242  044d 3d01          	tnz	_dataReceive2+1
6243  044f 2614          	jrne	L5033
6245  0451 3d02          	tnz	_dataReceive2+2
6246  0453 2610          	jrne	L5033
6247                     ; 489 			LED_P6x8Char(xPostion + 12, dataPostion, ' ');
6249  0455 4b20          	push	#32
6250  0457 7b03          	ld	a,(OFST+2,sp)
6251  0459 97            	ld	xl,a
6252  045a 7b02          	ld	a,(OFST+1,sp)
6253  045c ab0c          	add	a,#12
6254  045e 95            	ld	xh,a
6255  045f cd01f5        	call	_LED_P6x8Char
6257  0462 84            	pop	a
6259  0463 2011          	jra	L7033
6260  0465               L5033:
6261                     ; 491 			LED_P6x8Char(xPostion + 12, dataPostion, dataReceive2[2] + 48);
6263  0465 b602          	ld	a,_dataReceive2+2
6264  0467 ab30          	add	a,#48
6265  0469 88            	push	a
6266  046a 7b03          	ld	a,(OFST+2,sp)
6267  046c 97            	ld	xl,a
6268  046d 7b02          	ld	a,(OFST+1,sp)
6269  046f ab0c          	add	a,#12
6270  0471 95            	ld	xh,a
6271  0472 cd01f5        	call	_LED_P6x8Char
6273  0475 84            	pop	a
6274  0476               L7033:
6275                     ; 494 		LED_P6x8Char(xPostion + 18, dataPostion, dataReceive2[3] + 48);
6277  0476 b603          	ld	a,_dataReceive2+3
6278  0478 ab30          	add	a,#48
6279  047a 88            	push	a
6280  047b 7b03          	ld	a,(OFST+2,sp)
6281  047d 97            	ld	xl,a
6282  047e 7b02          	ld	a,(OFST+1,sp)
6283  0480 ab12          	add	a,#18
6284  0482 95            	ld	xh,a
6285  0483 cd01f5        	call	_LED_P6x8Char
6287  0486 84            	pop	a
6288                     ; 495 		LED_P6x8Char(xPostion + 24, dataPostion, '.');
6290  0487 4b2e          	push	#46
6291  0489 7b03          	ld	a,(OFST+2,sp)
6292  048b 97            	ld	xl,a
6293  048c 7b02          	ld	a,(OFST+1,sp)
6294  048e ab18          	add	a,#24
6295  0490 95            	ld	xh,a
6296  0491 cd01f5        	call	_LED_P6x8Char
6298  0494 84            	pop	a
6299                     ; 496 		LED_P6x8Char(xPostion + 30, dataPostion, dataReceive2[4] + 48);
6301  0495 b604          	ld	a,_dataReceive2+4
6302  0497 ab30          	add	a,#48
6303  0499 88            	push	a
6304  049a 7b03          	ld	a,(OFST+2,sp)
6305  049c 97            	ld	xl,a
6306  049d 7b02          	ld	a,(OFST+1,sp)
6307  049f ab1e          	add	a,#30
6308  04a1 95            	ld	xh,a
6309  04a2 cd01f5        	call	_LED_P6x8Char
6311  04a5 84            	pop	a
6312  04a6 acf903f9      	jpf	L3723
6338                     	xdef	_LED_P6x8Str
6339                     	xdef	_LED_Fill
6340                     	xdef	_F6x8
6341                     	xdef	_SetNop
6342                     	xdef	_SetVCOMH
6343                     	xdef	_SetCommonConfig
6344                     	xdef	_SetPrechargePeriod
6345                     	xdef	_SetDisplayClock
6346                     	xdef	_SetDisplayOffset
6347                     	xdef	_SetCommonRemap
6348                     	xdef	_SetStartPage
6349                     	xdef	_SetDisplayOnOff
6350                     	xdef	_SetMultiplexRatio
6351                     	xdef	_SetInverseDisplay
6352                     	xdef	_SetEntireDisplay
6353                     	xdef	_SetSegmentRemap
6354                     	xdef	_SetChargePump
6355                     	xdef	_SetContrastControl
6356                     	xdef	_SetStartLine
6357                     	xdef	_SetPageAddress
6358                     	xdef	_SetColumnAddress
6359                     	xdef	_SetAddressingMode
6360                     	xdef	_SetStartColumn
6361                     	xdef	_LED_SetPos
6362                     	xdef	_LED_WrCmd
6363                     	xdef	_LED_WrDat
6364                     	xdef	_LED_P6x8Char
6365                     	xdef	_LedDisplay
6366                     	xdef	_LedDisplayChs
6367                     	xdef	_LED_Init
6368                     	xref.b	_dataReceive2
6369                     	switch	.const
6370  0228               L3323:
6371  0228 7300          	dc.b	"s",0
6372  022a               L1323:
6373  022a 487a00        	dc.b	"Hz",0
6374  022d               L7223:
6375  022d 4b574100      	dc.b	"KWA",0
6376  0231               L5223:
6377  0231 4b574800      	dc.b	"KWH",0
6378  0235               L3223:
6379  0235 4100          	dc.b	"A",0
6380  0237               L1223:
6381  0237 5600          	dc.b	"V",0
6382  0239               L7123:
6383  0239 5700          	dc.b	"W",0
6384  023b               L5123:
6385  023b 202020443a20  	dc.b	"   D: ",0
6386  0242               L3123:
6387  0242 465245513a20  	dc.b	"FREQ: ",0
6388  0249               L1123:
6389  0249 204b57413a20  	dc.b	" KWA: ",0
6390  0250               L7023:
6391  0250 204b57483a20  	dc.b	" KWH: ",0
6392  0257               L5023:
6393  0257 202020413a20  	dc.b	"   A: ",0
6394  025e               L3023:
6395  025e 202020563a20  	dc.b	"   V: ",0
6396  0265               L1023:
6397  0265 202020573a20  	dc.b	"   W: ",0
6417                     	end
